target datalayout = "e-m:e-p270:32:32-p271:32:32-p272:64:64-i64:64-i128:128-f80:128-n8:16:32:64-S128"
target triple = "x86_64-pc-linux-gnu"

%"class.std::basic_ostream" = type { ptr, %"class.std::basic_ios" }
%"class.std::basic_ios" = type { %"class.std::ios_base", ptr, i8, i8, ptr, ptr, ptr, ptr }
%"class.std::ios_base" = type { ptr, i64, i64, i32, i32, i32, ptr, %"struct.std::ios_base::_Words", [8 x %"struct.std::ios_base::_Words"], i32, ptr, %"class.std::locale" }
%"struct.std::ios_base::_Words" = type { ptr, i64 }
%"class.std::locale" = type { ptr }
%"class.std::shared_ptr" = type { %"class.std::__shared_ptr" }
%"class.std::__shared_ptr" = type { ptr, %"class.std::__shared_count" }
%"class.std::__shared_count" = type { ptr }
%"class.open_spiel::laser_tag::LaserTagState" = type { %"class.open_spiel::SimMoveState.base", ptr, i32, i32, i32, i32, i8, i8, i32, i32, i32, %"class.std::vector.23", %"struct.std::array", %"struct.std::array", %"struct.std::array", %"class.std::vector.28", %"class.std::vector.28", i32, i32, %"struct.std::array", %"class.std::vector.33" }
%"class.open_spiel::SimMoveState.base" = type { %"class.open_spiel::State.base" }
%"class.open_spiel::State.base" = type <{ ptr, %"class.std::shared_ptr", i32, i32, %"class.std::vector", i32 }>
%"class.std::vector" = type { %"struct.std::_Vector_base" }
%"struct.std::_Vector_base" = type { %"struct.std::_Vector_base<open_spiel::State::PlayerAction, std::allocator<open_spiel::State::PlayerAction>>::_Vector_impl" }
%"struct.std::_Vector_base<open_spiel::State::PlayerAction, std::allocator<open_spiel::State::PlayerAction>>::_Vector_impl" = type { %"struct.std::_Vector_base<open_spiel::State::PlayerAction, std::allocator<open_spiel::State::PlayerAction>>::_Vector_impl_data" }
%"struct.std::_Vector_base<open_spiel::State::PlayerAction, std::allocator<open_spiel::State::PlayerAction>>::_Vector_impl_data" = type { ptr, ptr, ptr }
%"class.std::vector.23" = type { %"struct.std::_Vector_base.24" }
%"struct.std::_Vector_base.24" = type { %"struct.std::_Vector_base<int, std::allocator<int>>::_Vector_impl" }
%"struct.std::_Vector_base<int, std::allocator<int>>::_Vector_impl" = type { %"struct.std::_Vector_base<int, std::allocator<int>>::_Vector_impl_data" }
%"struct.std::_Vector_base<int, std::allocator<int>>::_Vector_impl_data" = type { ptr, ptr, ptr }
%"class.std::vector.28" = type { %"struct.std::_Vector_base.29" }
%"struct.std::_Vector_base.29" = type { %"struct.std::_Vector_base<double, std::allocator<double>>::_Vector_impl" }
%"struct.std::_Vector_base<double, std::allocator<double>>::_Vector_impl" = type { %"struct.std::_Vector_base<double, std::allocator<double>>::_Vector_impl_data" }
%"struct.std::_Vector_base<double, std::allocator<double>>::_Vector_impl_data" = type { ptr, ptr, ptr }
%"struct.std::array" = type { [2 x i32] }
%"class.std::vector.33" = type { %"struct.std::_Vector_base.34" }
%"struct.std::_Vector_base.34" = type { %"struct.std::_Vector_base<char, std::allocator<char>>::_Vector_impl" }
%"struct.std::_Vector_base<char, std::allocator<char>>::_Vector_impl" = type { %"struct.std::_Vector_base<char, std::allocator<char>>::_Vector_impl_data" }
%"struct.std::_Vector_base<char, std::allocator<char>>::_Vector_impl_data" = type { ptr, ptr, ptr }
%"struct.open_spiel::laser_tag::Grid" = type { i32, i32, %"class.std::vector.35", %"class.std::vector.35" }
%"class.std::vector.35" = type { %"struct.std::_Vector_base.36" }
%"struct.std::_Vector_base.36" = type { %"struct.std::_Vector_base<std::pair<int, int>, std::allocator<std::pair<int, int>>>::_Vector_impl" }
%"struct.std::_Vector_base<std::pair<int, int>, std::allocator<std::pair<int, int>>>::_Vector_impl" = type { %"struct.std::_Vector_base<std::pair<int, int>, std::allocator<std::pair<int, int>>>::_Vector_impl_data" }
%"struct.std::_Vector_base<std::pair<int, int>, std::allocator<std::pair<int, int>>>::_Vector_impl_data" = type { ptr, ptr, ptr }

@_ZSt4cerr = external global %"class.std::basic_ostream", align 8
@.str.69 = private unnamed_addr constant [29 x i8] c"Invalid character on field: \00", align 1

; Function Attrs: mustprogress nounwind uwtable
define linkonce_odr noundef nonnull align 1 dereferenceable(1) ptr @_ZNKSt6vectorIcSaIcEEixEm(ptr noundef nonnull align 8 dereferenceable(24) %0, i64 noundef %1) #5 comdat align 2 {
  %3 = alloca ptr, align 8
  %4 = alloca i64, align 8
  store ptr %0, ptr %3, align 8
  store i64 %1, ptr %4, align 8
  %5 = load ptr, ptr %3, align 8
  %6 = getelementptr inbounds nuw %"struct.std::_Vector_base.34", ptr %5, i32 0, i32 0
  %7 = getelementptr inbounds nuw %"struct.std::_Vector_base<char, std::allocator<char>>::_Vector_impl_data", ptr %6, i32 0, i32 0
  %8 = load ptr, ptr %7, align 8
  %9 = load i64, ptr %4, align 8
  %10 = getelementptr inbounds i8, ptr %8, i64 %9
  ret ptr %10
}

; Function Attrs: mustprogress nounwind uwtable
define noundef signext i8 @_ZNK10open_spiel9laser_tag13LaserTagState5fieldEii(ptr noundef nonnull align 8 dereferenceable(240) %0, i32 noundef %1, i32 noundef %2) #5 align 2 {
  %4 = alloca ptr, align 8
  %5 = alloca i32, align 4
  %6 = alloca i32, align 4
  store ptr %0, ptr %4, align 8
  store i32 %1, ptr %5, align 4
  store i32 %2, ptr %6, align 4
  %7 = load ptr, ptr %4, align 8
  %8 = getelementptr inbounds nuw %"class.open_spiel::laser_tag::LaserTagState", ptr %7, i32 0, i32 20
  %9 = load i32, ptr %5, align 4
  %10 = getelementptr inbounds nuw %"class.open_spiel::laser_tag::LaserTagState", ptr %7, i32 0, i32 1
  %11 = load ptr, ptr %10, align 8
  %12 = getelementptr inbounds nuw %"struct.open_spiel::laser_tag::Grid", ptr %11, i32 0, i32 1
  %13 = load i32, ptr %12, align 4
  %14 = mul nsw i32 %9, %13
  %15 = load i32, ptr %6, align 4
  %16 = add nsw i32 %14, %15
  %17 = sext i32 %16 to i64
  %18 = call noundef nonnull align 1 dereferenceable(1) ptr @_ZNKSt6vectorIcSaIcEEixEm(ptr noundef nonnull align 8 dereferenceable(24) %8, i64 noundef %17) #3
  %19 = load i8, ptr %18, align 1
  ret i8 %19
}

; Function Attrs: mustprogress uwtable
define noundef i32 @_ZNK10open_spiel9laser_tag13LaserTagState17observation_planeEii(ptr noundef nonnull align 8 dereferenceable(240) %0, i32 noundef %1, i32 noundef %2) #4 align 2 {
  %4 = alloca ptr, align 8
  %5 = alloca i32, align 4
  %6 = alloca i32, align 4
  %7 = alloca i32, align 4
  store ptr %0, ptr %4, align 8
  store i32 %1, ptr %5, align 4
  store i32 %2, ptr %6, align 4
  %8 = load ptr, ptr %4, align 8
  store i32 -1, ptr %7, align 4
  %9 = load i32, ptr %5, align 4
  %10 = load i32, ptr %6, align 4
  %11 = call noundef signext i8 @_ZNK10open_spiel9laser_tag13LaserTagState5fieldEii(ptr noundef nonnull align 8 dereferenceable(240) %8, i32 noundef %9, i32 noundef %10)
  %12 = sext i8 %11 to i32
  switch i32 %12, label %17 [
    i32 65, label %13
    i32 66, label %14
    i32 46, label %15
    i32 42, label %16
  ]

13:                                               ; preds = %3
  store i32 0, ptr %7, align 4
  br label %24

14:                                               ; preds = %3
  store i32 1, ptr %7, align 4
  br label %24

15:                                               ; preds = %3
  store i32 2, ptr %7, align 4
  br label %24

16:                                               ; preds = %3
  store i32 3, ptr %7, align 4
  br label %24

17:                                               ; preds = %3
  %18 = call noundef nonnull align 8 dereferenceable(8) ptr @_ZStlsISt11char_traitsIcEERSt13basic_ostreamIcT_ES5_PKc(ptr noundef nonnull align 8 dereferenceable(8) @_ZSt4cerr, ptr noundef @.str.69)
  %19 = load i32, ptr %5, align 4
  %20 = load i32, ptr %6, align 4
  %21 = call noundef signext i8 @_ZNK10open_spiel9laser_tag13LaserTagState5fieldEii(ptr noundef nonnull align 8 dereferenceable(240) %8, i32 noundef %19, i32 noundef %20)
  %22 = call noundef nonnull align 8 dereferenceable(8) ptr @_ZStlsISt11char_traitsIcEERSt13basic_ostreamIcT_ES5_c(ptr noundef nonnull align 8 dereferenceable(8) %18, i8 noundef signext %21)
  %23 = call noundef nonnull align 8 dereferenceable(8) ptr @_ZNSolsEPFRSoS_E(ptr noundef nonnull align 8 dereferenceable(8) %22, ptr noundef @_ZSt4endlIcSt11char_traitsIcEERSt13basic_ostreamIT_T0_ES6_)
  store i32 -1, ptr %7, align 4
  br label %24

24:                                               ; preds = %17, %16, %15, %14, %13
  %25 = load i32, ptr %7, align 4
  ret i32 %25
}