; Function Attrs: mustprogress uwtable
define noundef range(i32 -1, 4) i32 @_ZNK10open_spiel9laser_tag13LaserTagState17observation_planeEii(ptr nocapture noundef nonnull readonly align 8 dereferenceable(240) %0, i32 noundef %1, i32 noundef %2) local_unnamed_addr #3 align 2 {
  %4 = getelementptr inbounds nuw i8, ptr %0, i64 216
  %5 = getelementptr inbounds nuw i8, ptr %0, i64 64
  %6 = load ptr, ptr %5, align 8
  %7 = getelementptr inbounds nuw i8, ptr %6, i64 4
  %8 = load i32, ptr %7, align 4
  %9 = mul nsw i32 %8, %1
  %10 = add nsw i32 %9, %2
  %11 = sext i32 %10 to i64
  %12 = load ptr, ptr %4, align 8
  %13 = getelementptr inbounds i8, ptr %12, i64 %11
  %14 = load i8, ptr %13, align 1
  switch i8 %14, label %18 [
    i8 65, label %31
    i8 66, label %15
    i8 46, label %16
    i8 42, label %17
  ]

15:                                               ; preds = %3
  br label %31

16:                                               ; preds = %3
  br label %31

17:                                               ; preds = %3
  br label %31

18:                                               ; preds = %3
  %19 = tail call noundef nonnull align 8 dereferenceable(8) ptr @_ZStlsISt11char_traitsIcEERSt13basic_ostreamIcT_ES5_PKc(ptr noundef nonnull align 8 dereferenceable(8) @_ZSt4cerr, ptr noundef nonnull @.str.69)
  %20 = load ptr, ptr %5, align 8
  %21 = getelementptr inbounds nuw i8, ptr %20, i64 4
  %22 = load i32, ptr %21, align 4
  %23 = mul nsw i32 %22, %1
  %24 = add nsw i32 %23, %2
  %25 = sext i32 %24 to i64
  %26 = load ptr, ptr %4, align 8
  %27 = getelementptr inbounds i8, ptr %26, i64 %25
  %28 = load i8, ptr %27, align 1
  %29 = tail call noundef nonnull align 8 dereferenceable(8) ptr @_ZStlsISt11char_traitsIcEERSt13basic_ostreamIcT_ES5_c(ptr noundef nonnull align 8 dereferenceable(8) %19, i8 noundef signext %28)
  %30 = tail call noundef nonnull align 8 dereferenceable(8) ptr @_ZNSolsEPFRSoS_E(ptr noundef nonnull align 8 dereferenceable(8) %29, ptr noundef nonnull @_ZSt4endlIcSt11char_traitsIcEERSt13basic_ostreamIT_T0_ES6_)
  br label %31

31:                                               ; preds = %3, %18, %17, %16, %15
  %.0 = phi i32 [ -1, %18 ], [ 3, %17 ], [ 2, %16 ], [ 1, %15 ], [ 0, %3 ]
  ret i32 %.0
}